target datalayout = "e-m:e-p270:32:32-p271:32:32-p272:64:64-i64:64-i128:128-f80:128-n8:16:32:64-S128"
target triple = "x86_64-pc-linux-gnu"

%"class.OpenImageIO::v3_1_0::bmp_pvt::BmpFileHeader" = type { i16, i32, i16, i16, i32 }
%"class.std::__cxx11::basic_string" = type { %"struct.std::__cxx11::basic_string<char>::_Alloc_hider", i64, %union.anon.15 }
%"struct.std::__cxx11::basic_string<char>::_Alloc_hider" = type { ptr }
%union.anon.15 = type { i64, [8 x i8] }
%"class.OpenImageIO::v3_1_0::Filesystem::IOProxy" = type { ptr, %"class.std::__cxx11::basic_string", i64, i32, %"class.std::__cxx11::basic_string" }

; Function Attrs: mustprogress nounwind uwtable
define linkonce_odr noundef i32 @_ZNK11OpenImageIO6v3_1_010Filesystem7IOProxy4modeEv(ptr noundef nonnull align 8 dereferenceable(88) %0) #6 comdat align 2 {
  %2 = alloca ptr, align 8
  store ptr %0, ptr %2, align 8, !tbaa !12
  %3 = load ptr, ptr %2, align 8
  %4 = getelementptr inbounds nuw %"class.OpenImageIO::v3_1_0::Filesystem::IOProxy", ptr %3, i32 0, i32 3
  %5 = load i32, ptr %4, align 8, !tbaa !14
  ret i32 %5
}

; Function Attrs: mustprogress uwtable
define hidden noundef zeroext i1 @_ZNK11OpenImageIO6v3_1_08BmpInput10valid_fileEPNS0_10Filesystem7IOProxyE(ptr noundef nonnull align 8 dereferenceable(472) %0, ptr noundef %1) unnamed_addr #7 align 2 {
  %3 = alloca i1, align 1
  %4 = alloca ptr, align 8
  %5 = alloca ptr, align 8
  %6 = alloca %"class.OpenImageIO::v3_1_0::bmp_pvt::BmpFileHeader", align 4
  store ptr %0, ptr %4, align 8, !tbaa !8
  store ptr %1, ptr %5, align 8, !tbaa !12
  %7 = load ptr, ptr %5, align 8, !tbaa !12
  %8 = icmp ne ptr %7, null
  br i1 %8, label %9, label %13

9:                                                ; preds = %2
  %10 = load ptr, ptr %5, align 8, !tbaa !12
  %11 = call noundef i32 @_ZNK11OpenImageIO6v3_1_010Filesystem7IOProxy4modeEv(ptr noundef nonnull align 8 dereferenceable(88) %10)
  %12 = icmp ne i32 %11, 114
  br i1 %12, label %13, label %14

13:                                               ; preds = %9, %2
  store i1 false, ptr %3, align 1
  br label %21

14:                                               ; preds = %9
  call void @llvm.lifetime.start.p0(i64 16, ptr %6) #3
  %15 = load ptr, ptr %5, align 8, !tbaa !12
  %16 = call noundef zeroext i1 @_ZN11OpenImageIO6v3_1_07bmp_pvt13BmpFileHeader11read_headerEPNS0_10Filesystem7IOProxyE(ptr noundef nonnull align 4 dereferenceable(16) %6, ptr noundef %15)
  br i1 %16, label %17, label %19

17:                                               ; preds = %14
  %18 = call noundef zeroext i1 @_ZNK11OpenImageIO6v3_1_07bmp_pvt13BmpFileHeader5isBmpEv(ptr noundef nonnull align 4 dereferenceable(16) %6)
  br label %19

19:                                               ; preds = %17, %14
  %20 = phi i1 [ false, %14 ], [ %18, %17 ]
  store i1 %20, ptr %3, align 1
  call void @llvm.lifetime.end.p0(i64 16, ptr %6) #3
  br label %21

21:                                               ; preds = %19, %13
  %22 = load i1, ptr %3, align 1
  ret i1 %22
}