; Function Attrs: mustprogress uwtable
define hidden noundef zeroext i1 @_ZNK11OpenImageIO6v3_1_08BmpInput10valid_fileEPNS0_10Filesystem7IOProxyE(ptr nonnull readnone align 8 captures(none) %0, ptr noundef %1) unnamed_addr #6 align 2 {
  %3 = alloca %"class.OpenImageIO::v3_1_0::bmp_pvt::BmpFileHeader", align 4
  %.not = icmp eq ptr %1, null
  br i1 %.not, label %13, label %4

4:                                                ; preds = %2
  %5 = getelementptr inbounds nuw i8, ptr %1, i64 48
  %6 = load i32, ptr %5, align 8, !tbaa !66
  %.not5 = icmp eq i32 %6, 114
  br i1 %.not5, label %7, label %13

7:                                                ; preds = %4
  call void @llvm.lifetime.start.p0(i64 16, ptr nonnull %3) #27
  %8 = call noundef zeroext i1 @_ZN11OpenImageIO6v3_1_07bmp_pvt13BmpFileHeader11read_headerEPNS0_10Filesystem7IOProxyE(ptr noundef nonnull align 4 dereferenceable(16) %3, ptr noundef nonnull %1)
  br i1 %8, label %9, label %11

9:                                                ; preds = %7
  %10 = call noundef zeroext i1 @_ZNK11OpenImageIO6v3_1_07bmp_pvt13BmpFileHeader5isBmpEv(ptr noundef nonnull align 4 dereferenceable(16) %3)
  br label %11

11:                                               ; preds = %9, %7
  %12 = phi i1 [ false, %7 ], [ %10, %9 ]
  call void @llvm.lifetime.end.p0(i64 16, ptr nonnull %3) #27
  br label %13

13:                                               ; preds = %2, %4, %11
  %.0 = phi i1 [ %12, %11 ], [ false, %4 ], [ false, %2 ]
  ret i1 %.0
}